target datalayout = "e-m:e-p270:32:32-p271:32:32-p272:64:64-i64:64-i128:128-f80:128-n8:16:32:64-S128"
target triple = "x86_64-pc-linux-gnu"

%struct.PaAlsaHostApiRepresentation = type { %struct.PaUtilHostApiRepresentation, %struct.PaUtilStreamInterface, %struct.PaUtilStreamInterface, ptr, i32, i32 }
%struct.PaUtilHostApiRepresentation = type { %struct.PaUtilPrivatePaFrontHostApiInfo, %struct.PaHostApiInfo, ptr, ptr, ptr, ptr }
%struct.PaUtilPrivatePaFrontHostApiInfo = type { i64 }
%struct.PaHostApiInfo = type { i32, i32, ptr, i32, i32, i32 }
%struct.PaUtilStreamInterface = type { ptr, ptr, ptr, ptr, ptr, ptr, ptr, ptr, ptr, ptr, ptr, ptr }
%struct.PaAlsaStream = type { %struct.PaUtilStreamRepresentation, %struct.PaUtilCpuLoadMeasurer, %struct.PaUtilBufferProcessor, %struct.PaUnixThread, i64, i64, i32, i32, i32, i32, ptr, i32, i32, i32, i32, %struct.PaUnixMutex, i32, double, double, %struct.PaAlsaStreamComponent, %struct.PaAlsaStreamComponent }
%struct.PaUtilStreamRepresentation = type { i64, ptr, ptr, ptr, ptr, ptr, %struct.PaStreamInfo }
%struct.PaStreamInfo = type { i32, double, double, double }
%struct.PaUtilCpuLoadMeasurer = type { double, double, double }
%struct.PaUtilBufferProcessor = type { i64, i64, i32, i32, i32, i32, i64, i32, i32, i32, i32, ptr, ptr, i32, i32, i32, i32, ptr, ptr, i64, i64, ptr, ptr, i64, ptr, ptr, i64, ptr, i64, i32, [2 x i64], [2 x ptr], i32, [2 x i64], [2 x ptr], %struct.PaUtilTriangularDitherGenerator, double, ptr, ptr }
%struct.PaUtilTriangularDitherGenerator = type { i32, i32, i32 }
%struct.PaUnixThread = type { i64, i32, i32, i32, %struct.PaUnixMutex, %union.pthread_cond_t, i32, i32 }
%union.pthread_cond_t = type { %struct.__pthread_cond_s }
%struct.__pthread_cond_s = type { %union.__atomic_wide_counter, %union.__atomic_wide_counter, [2 x i32], [2 x i32], i32, i32, [2 x i32] }
%union.__atomic_wide_counter = type { i64 }
%struct.PaUnixMutex = type { %union.pthread_mutex_t }
%union.pthread_mutex_t = type { %struct.__pthread_mutex_s }
%struct.__pthread_mutex_s = type { i32, i32, i32, i32, i32, i16, i16, %struct.__pthread_internal_list }
%struct.__pthread_internal_list = type { ptr, ptr }
%struct.PaAlsaStreamComponent = type { i64, i32, i32, i32, i32, i32, ptr, i32, i32, i32, i32, ptr, i64, i64, i32, i32, i32, ptr, i64, i32, ptr }

@paUtilErr_ = internal global i32 0, align 4
@alsa_snd_pcm_info_sizeof = internal global ptr null, align 8
@alsa_snd_pcm_info = internal global ptr null, align 8
@alsa_snd_pcm_info_get_card = internal global ptr null, align 8
@.str.33 = private unnamed_addr constant [203 x i8] c"Expression 'GetAlsaStreamPointer( s, &stream )' failed in 'generated/home/dtcxzyw/WorkSpace/Projects/compilers/llvm-opt-benchmark/bench/portaudio/portaudio/src/hostapi/alsa/pa_linux_alsa.c', line: 4690\0A\00", align 1
@.str.34 = private unnamed_addr constant [189 x i8] c"Expression 'stream->playback.pcm' failed in 'generated/home/dtcxzyw/WorkSpace/Projects/compilers/llvm-opt-benchmark/bench/portaudio/portaudio/src/hostapi/alsa/pa_linux_alsa.c', line: 4693\0A\00", align 1
@.str.35 = private unnamed_addr constant [219 x i8] c"Expression 'alsa_snd_pcm_info( stream->playback.pcm, pcmInfo )' failed in 'generated/home/dtcxzyw/WorkSpace/Projects/compilers/llvm-opt-benchmark/bench/portaudio/portaudio/src/hostapi/alsa/pa_linux_alsa.c', line: 4696\0A\00", align 1
@.str.230 = private unnamed_addr constant [202 x i8] c"Expression 'PaUtil_ValidateStreamPointer( s )' failed in 'generated/home/dtcxzyw/WorkSpace/Projects/compilers/llvm-opt-benchmark/bench/portaudio/portaudio/src/hostapi/alsa/pa_linux_alsa.c', line: 4650\0A\00", align 1
@.str.231 = private unnamed_addr constant [220 x i8] c"Expression 'PaUtil_GetHostApiRepresentation( &hostApi, paALSA )' failed in 'generated/home/dtcxzyw/WorkSpace/Projects/compilers/llvm-opt-benchmark/bench/portaudio/portaudio/src/hostapi/alsa/pa_linux_alsa.c', line: 4651\0A\00", align 1

; Function Attrs: nounwind uwtable
define internal i32 @GetAlsaStreamPointer(ptr noundef %0, ptr noundef %1) #0 {
  %3 = alloca ptr, align 8
  %4 = alloca ptr, align 8
  %5 = alloca i32, align 4
  %6 = alloca ptr, align 8
  %7 = alloca ptr, align 8
  store ptr %0, ptr %3, align 8, !tbaa !32
  store ptr %1, ptr %4, align 8, !tbaa !124
  call void @llvm.lifetime.start.p0(i64 4, ptr %5) #17
  store i32 0, ptr %5, align 4, !tbaa !8
  call void @llvm.lifetime.start.p0(i64 8, ptr %6) #17
  call void @llvm.lifetime.start.p0(i64 8, ptr %7) #17
  br label %8

8:                                                ; preds = %2
  %9 = load ptr, ptr %3, align 8, !tbaa !32
  %10 = call i32 @PaUtil_ValidateStreamPointer(ptr noundef %9)
  store i32 %10, ptr @paUtilErr_, align 4, !tbaa !8
  %11 = icmp slt i32 %10, 0
  %12 = zext i1 %11 to i32
  %13 = sext i32 %12 to i64
  %14 = call i64 @llvm.expect.i64(i64 %13, i64 0)
  %15 = icmp ne i64 %14, 0
  br i1 %15, label %16, label %18

16:                                               ; preds = %8
  call void (ptr, ...) @PaUtil_DebugPrint(ptr noundef @.str.230)
  %17 = load i32, ptr @paUtilErr_, align 4, !tbaa !8
  store i32 %17, ptr %5, align 4, !tbaa !8
  br label %62

18:                                               ; preds = %8
  br label %19

19:                                               ; preds = %18
  br label %20

20:                                               ; preds = %19
  br label %21

21:                                               ; preds = %20
  %22 = call i32 @PaUtil_GetHostApiRepresentation(ptr noundef %6, i32 noundef 8)
  store i32 %22, ptr @paUtilErr_, align 4, !tbaa !8
  %23 = icmp slt i32 %22, 0
  %24 = zext i1 %23 to i32
  %25 = sext i32 %24 to i64
  %26 = call i64 @llvm.expect.i64(i64 %25, i64 0)
  %27 = icmp ne i64 %26, 0
  br i1 %27, label %28, label %30

28:                                               ; preds = %21
  call void (ptr, ...) @PaUtil_DebugPrint(ptr noundef @.str.231)
  %29 = load i32, ptr @paUtilErr_, align 4, !tbaa !8
  store i32 %29, ptr %5, align 4, !tbaa !8
  br label %62

30:                                               ; preds = %21
  br label %31

31:                                               ; preds = %30
  br label %32

32:                                               ; preds = %31
  %33 = load ptr, ptr %6, align 8, !tbaa !24
  store ptr %33, ptr %7, align 8, !tbaa !12
  br label %34

34:                                               ; preds = %32
  %35 = load ptr, ptr %3, align 8, !tbaa !32
  %36 = getelementptr inbounds nuw %struct.PaUtilStreamRepresentation, ptr %35, i32 0, i32 2
  %37 = load ptr, ptr %36, align 8, !tbaa !126
  %38 = load ptr, ptr %7, align 8, !tbaa !12
  %39 = getelementptr inbounds nuw %struct.PaAlsaHostApiRepresentation, ptr %38, i32 0, i32 1
  %40 = icmp eq ptr %37, %39
  br i1 %40, label %48, label %41

41:                                               ; preds = %34
  %42 = load ptr, ptr %3, align 8, !tbaa !32
  %43 = getelementptr inbounds nuw %struct.PaUtilStreamRepresentation, ptr %42, i32 0, i32 2
  %44 = load ptr, ptr %43, align 8, !tbaa !126
  %45 = load ptr, ptr %7, align 8, !tbaa !12
  %46 = getelementptr inbounds nuw %struct.PaAlsaHostApiRepresentation, ptr %45, i32 0, i32 2
  %47 = icmp eq ptr %44, %46
  br label %48

48:                                               ; preds = %41, %34
  %49 = phi i1 [ true, %34 ], [ %47, %41 ]
  %50 = zext i1 %49 to i32
  %51 = icmp eq i32 %50, 0
  %52 = zext i1 %51 to i32
  %53 = sext i32 %52 to i64
  %54 = call i64 @llvm.expect.i64(i64 %53, i64 0)
  %55 = icmp ne i64 %54, 0
  br i1 %55, label %56, label %57

56:                                               ; preds = %48
  call void (ptr, ...) @PaUtil_DebugPrint(ptr noundef @.str.232)
  store i32 -9973, ptr %5, align 4, !tbaa !8
  br label %62

57:                                               ; preds = %48
  br label %58

58:                                               ; preds = %57
  br label %59

59:                                               ; preds = %58
  %60 = load ptr, ptr %3, align 8, !tbaa !32
  %61 = load ptr, ptr %4, align 8, !tbaa !124
  store ptr %60, ptr %61, align 8, !tbaa !38
  br label %62

62:                                               ; preds = %59, %56, %28, %16
  call void @llvm.lifetime.end.p0(i64 8, ptr %7) #17
  call void @llvm.lifetime.end.p0(i64 8, ptr %6) #17
  call void @llvm.lifetime.end.p0(i64 4, ptr %5) #17
  ret i32 0
}

; Function Attrs: nounwind uwtable
define i32 @PaAlsa_GetStreamOutputCard(ptr noundef %0, ptr noundef %1) #0 {
  %3 = alloca ptr, align 8
  %4 = alloca ptr, align 8
  %5 = alloca ptr, align 8
  %6 = alloca i32, align 4
  %7 = alloca ptr, align 8
  %8 = alloca i64, align 8
  store ptr %0, ptr %3, align 8, !tbaa !32
  store ptr %1, ptr %4, align 8, !tbaa !122
  call void @llvm.lifetime.start.p0(i64 8, ptr %5) #17
  call void @llvm.lifetime.start.p0(i64 4, ptr %6) #17
  store i32 0, ptr %6, align 4, !tbaa !8
  call void @llvm.lifetime.start.p0(i64 8, ptr %7) #17
  store ptr null, ptr %5, align 8, !tbaa !38
  br label %9

9:                                                ; preds = %2
  %10 = load ptr, ptr %3, align 8, !tbaa !32
  %11 = call i32 @GetAlsaStreamPointer(ptr noundef %10, ptr noundef %5)
  store i32 %11, ptr @paUtilErr_, align 4, !tbaa !8
  %12 = icmp slt i32 %11, 0
  %13 = zext i1 %12 to i32
  %14 = sext i32 %13 to i64
  %15 = call i64 @llvm.expect.i64(i64 %14, i64 0)
  %16 = icmp ne i64 %15, 0
  br i1 %16, label %17, label %19

17:                                               ; preds = %9
  call void (ptr, ...) @PaUtil_DebugPrint(ptr noundef @.str.33)
  %18 = load i32, ptr @paUtilErr_, align 4, !tbaa !8
  store i32 %18, ptr %6, align 4, !tbaa !8
  br label %67

19:                                               ; preds = %9
  br label %20

20:                                               ; preds = %19
  br label %21

21:                                               ; preds = %20
  br label %22

22:                                               ; preds = %21
  %23 = load ptr, ptr %5, align 8, !tbaa !38
  %24 = getelementptr inbounds nuw %struct.PaAlsaStream, ptr %23, i32 0, i32 20
  %25 = getelementptr inbounds nuw %struct.PaAlsaStreamComponent, ptr %24, i32 0, i32 11
  %26 = load ptr, ptr %25, align 8, !tbaa !101
  %27 = icmp eq ptr %26, null
  %28 = zext i1 %27 to i32
  %29 = sext i32 %28 to i64
  %30 = call i64 @llvm.expect.i64(i64 %29, i64 0)
  %31 = icmp ne i64 %30, 0
  br i1 %31, label %32, label %33

32:                                               ; preds = %22
  call void (ptr, ...) @PaUtil_DebugPrint(ptr noundef @.str.34)
  store i32 -9985, ptr %6, align 4, !tbaa !8
  br label %67

33:                                               ; preds = %22
  br label %34

34:                                               ; preds = %33
  br label %35

35:                                               ; preds = %34
  br label %36

36:                                               ; preds = %35
  call void @llvm.lifetime.start.p0(i64 8, ptr %8) #17
  %37 = load ptr, ptr @alsa_snd_pcm_info_sizeof, align 8, !tbaa !32
  %38 = call i64 %37()
  store i64 %38, ptr %8, align 8, !tbaa !37
  %39 = load i64, ptr %8, align 8, !tbaa !37
  %40 = alloca i8, i64 %39, align 16
  store ptr %40, ptr %7, align 8, !tbaa !70
  %41 = load ptr, ptr %7, align 8, !tbaa !70
  %42 = load i64, ptr %8, align 8, !tbaa !37
  call void @llvm.memset.p0.i64(ptr align 1 %41, i8 0, i64 %42, i1 false)
  call void @llvm.lifetime.end.p0(i64 8, ptr %8) #17
  br label %43

43:                                               ; preds = %36
  br label %44

44:                                               ; preds = %43
  br label %45

45:                                               ; preds = %44
  %46 = load ptr, ptr @alsa_snd_pcm_info, align 8, !tbaa !32
  %47 = load ptr, ptr %5, align 8, !tbaa !38
  %48 = getelementptr inbounds nuw %struct.PaAlsaStream, ptr %47, i32 0, i32 20
  %49 = getelementptr inbounds nuw %struct.PaAlsaStreamComponent, ptr %48, i32 0, i32 11
  %50 = load ptr, ptr %49, align 8, !tbaa !101
  %51 = load ptr, ptr %7, align 8, !tbaa !70
  %52 = call i32 %46(ptr noundef %50, ptr noundef %51)
  store i32 %52, ptr @paUtilErr_, align 4, !tbaa !8
  %53 = icmp slt i32 %52, 0
  %54 = zext i1 %53 to i32
  %55 = sext i32 %54 to i64
  %56 = call i64 @llvm.expect.i64(i64 %55, i64 0)
  %57 = icmp ne i64 %56, 0
  br i1 %57, label %58, label %60

58:                                               ; preds = %45
  call void (ptr, ...) @PaUtil_DebugPrint(ptr noundef @.str.35)
  %59 = load i32, ptr @paUtilErr_, align 4, !tbaa !8
  store i32 %59, ptr %6, align 4, !tbaa !8
  br label %67

60:                                               ; preds = %45
  br label %61

61:                                               ; preds = %60
  br label %62

62:                                               ; preds = %61
  %63 = load ptr, ptr @alsa_snd_pcm_info_get_card, align 8, !tbaa !32
  %64 = load ptr, ptr %7, align 8, !tbaa !70
  %65 = call i32 %63(ptr noundef %64)
  %66 = load ptr, ptr %4, align 8, !tbaa !122
  store i32 %65, ptr %66, align 4, !tbaa !8
  br label %67

67:                                               ; preds = %62, %58, %32, %17
  %68 = load i32, ptr %6, align 4, !tbaa !8
  call void @llvm.lifetime.end.p0(i64 8, ptr %7) #17
  call void @llvm.lifetime.end.p0(i64 4, ptr %6) #17
  call void @llvm.lifetime.end.p0(i64 8, ptr %5) #17
  ret i32 %68
}