; Function Attrs: nounwind uwtable
define i32 @PaAlsa_GetStreamOutputCard(ptr noundef %0, ptr noundef writeonly captures(none) %1) local_unnamed_addr #2 {
  %3 = alloca ptr, align 8
  call void @llvm.lifetime.start.p0(i64 8, ptr nonnull %3) #25
  %4 = tail call i32 @PaUtil_ValidateStreamPointer(ptr noundef %0) #25
  store i32 %4, ptr @paUtilErr_, align 4, !tbaa !3
  %5 = icmp slt i32 %4, 0
  br i1 %5, label %6, label %7, !prof !9

6:                                                ; preds = %2
  tail call void (ptr, ...) @PaUtil_DebugPrint(ptr noundef nonnull @.str.230) #25
  br label %GetAlsaStreamPointer.exit

7:                                                ; preds = %2
  %8 = call i32 @PaUtil_GetHostApiRepresentation(ptr noundef nonnull %3, i32 noundef 8) #25
  store i32 %8, ptr @paUtilErr_, align 4, !tbaa !3
  %9 = icmp slt i32 %8, 0
  br i1 %9, label %10, label %11, !prof !9

10:                                               ; preds = %7
  call void (ptr, ...) @PaUtil_DebugPrint(ptr noundef nonnull @.str.231) #25
  br label %GetAlsaStreamPointer.exit

11:                                               ; preds = %7
  %12 = load ptr, ptr %3, align 8, !tbaa !22
  %13 = getelementptr inbounds nuw i8, ptr %0, i64 16
  %14 = load ptr, ptr %13, align 8, !tbaa !150
  %15 = getelementptr inbounds nuw i8, ptr %12, i64 72
  %16 = icmp ne ptr %14, %15
  %17 = getelementptr inbounds nuw i8, ptr %12, i64 168
  %18 = icmp ne ptr %14, %17
  %19 = select i1 %16, i1 %18, i1 false
  br i1 %19, label %20, label %GetAlsaStreamPointer.exit, !prof !9

20:                                               ; preds = %11
  call void (ptr, ...) @PaUtil_DebugPrint(ptr noundef nonnull @.str.232) #25
  br label %GetAlsaStreamPointer.exit

GetAlsaStreamPointer.exit:                        ; preds = %11, %6, %10, %20
  %.08 = phi ptr [ null, %6 ], [ null, %10 ], [ null, %20 ], [ %0, %11 ]
  call void @llvm.lifetime.end.p0(i64 8, ptr nonnull %3) #25
  store i32 0, ptr @paUtilErr_, align 4, !tbaa !3
  %21 = getelementptr inbounds nuw i8, ptr %.08, i64 832
  %22 = load ptr, ptr %21, align 8, !tbaa !130
  %23 = icmp eq ptr %22, null
  br i1 %23, label %24, label %25, !prof !9

24:                                               ; preds = %GetAlsaStreamPointer.exit
  call void (ptr, ...) @PaUtil_DebugPrint(ptr noundef nonnull @.str.34) #25
  br label %35

25:                                               ; preds = %GetAlsaStreamPointer.exit
  %26 = call i64 @snd_pcm_info_sizeof() #25, !callees !79
  %27 = alloca i8, i64 %26, align 16
  call void @llvm.memset.p0.i64(ptr nonnull align 16 %27, i8 0, i64 %26, i1 false)
  %28 = load ptr, ptr %21, align 8, !tbaa !130
  %29 = call i32 @snd_pcm_info(ptr noundef %28, ptr noundef nonnull %27) #25, !callees !151
  store i32 %29, ptr @paUtilErr_, align 4, !tbaa !3
  %30 = icmp slt i32 %29, 0
  br i1 %30, label %31, label %33, !prof !9

31:                                               ; preds = %25
  call void (ptr, ...) @PaUtil_DebugPrint(ptr noundef nonnull @.str.35) #25
  %32 = load i32, ptr @paUtilErr_, align 4, !tbaa !3
  br label %35

33:                                               ; preds = %25
  %34 = call i32 @snd_pcm_info_get_card(ptr noundef nonnull %27) #25, !callees !152
  store i32 %34, ptr %1, align 4, !tbaa !3
  br label %35

35:                                               ; preds = %33, %31, %24
  %.0 = phi i32 [ -9985, %24 ], [ %32, %31 ], [ 0, %33 ]
  ret i32 %.0
}